target datalayout = "e-m:e-p270:32:32-p271:32:32-p272:64:64-i64:64-i128:128-f80:128-n8:16:32:64-S128"
target triple = "x86_64-pc-linux-gnu"

%struct._ext_toolbar_t = type { i32, ptr, i32, i32, ptr, ptr, ptr, ptr, i32, i32, i32, ptr, ptr, ptr }

; Function Attrs: mustprogress uwtable
define void @_ZN29AdditionalToolbarWidgetAction17onCheckBoxCheckedEi(ptr noundef nonnull align 8 dereferenceable(24) %0, i32 noundef %1) #0 align 2 {
  %3 = alloca ptr, align 8
  %4 = alloca i32, align 4
  %5 = alloca ptr, align 8
  %6 = alloca i32, align 4
  store ptr %0, ptr %3, align 8
  store i32 %1, ptr %4, align 4
  %7 = load ptr, ptr %3, align 8
  %8 = call noundef ptr @_ZNK7QObject6senderEv(ptr noundef nonnull align 8 dereferenceable(16) %7)
  %9 = call noundef ptr @_ZN29AdditionalToolbarWidgetAction28extractToolbarItemFromObjectEP7QObject(ptr noundef nonnull align 8 dereferenceable(24) %7, ptr noundef %8)
  store ptr %9, ptr %5, align 8
  %10 = load ptr, ptr %5, align 8
  %11 = icmp ne ptr %10, null
  br i1 %11, label %13, label %12

12:                                               ; preds = %2
  br label %25

13:                                               ; preds = %2
  %14 = load i32, ptr %4, align 4
  %15 = icmp eq i32 %14, 2
  %16 = select i1 %15, i1 true, i1 false
  %17 = zext i1 %16 to i32
  store i32 %17, ptr %6, align 4
  %18 = load ptr, ptr %5, align 8
  %19 = getelementptr inbounds %struct._ext_toolbar_t, ptr %18, i32 0, i32 13
  %20 = load ptr, ptr %19, align 8
  %21 = load ptr, ptr %5, align 8
  %22 = load ptr, ptr %5, align 8
  %23 = getelementptr inbounds %struct._ext_toolbar_t, ptr %22, i32 0, i32 7
  %24 = load ptr, ptr %23, align 8
  call void %20(ptr noundef %21, ptr noundef %6, ptr noundef %24)
  br label %25

25:                                               ; preds = %13, %12
  ret void
}