; Function Attrs: mustprogress uwtable
define void @_ZN29AdditionalToolbarWidgetAction17onCheckBoxCheckedEi(ptr noundef nonnull align 8 dereferenceable(24) %0, i32 noundef %1) #0 align 2 {
  %3 = alloca i32, align 4
  %4 = tail call noundef ptr @_ZNK7QObject6senderEv(ptr noundef nonnull align 8 dereferenceable(16) %0)
  %5 = tail call noundef ptr @_ZN29AdditionalToolbarWidgetAction28extractToolbarItemFromObjectEP7QObject(ptr nonnull align 8 poison, ptr noundef %4)
  %.not = icmp eq ptr %5, null
  br i1 %.not, label %13, label %6

6:                                                ; preds = %2
  %7 = icmp eq i32 %1, 2
  %8 = zext i1 %7 to i32
  store i32 %8, ptr %3, align 4
  %9 = getelementptr inbounds i8, ptr %5, i64 88
  %10 = load ptr, ptr %9, align 8
  %11 = getelementptr inbounds i8, ptr %5, i64 48
  %12 = load ptr, ptr %11, align 8
  call void %10(ptr noundef nonnull %5, ptr noundef nonnull %3, ptr noundef %12)
  br label %13

13:                                               ; preds = %2, %6
  ret void
}